target datalayout = "e-m:e-p270:32:32-p271:32:32-p272:64:64-i64:64-i128:128-f80:128-n8:16:32:64-S128"
target triple = "x86_64-pc-linux-gnu"

; Function Attrs: mustprogress nounwind uwtable
define hidden noundef double @_Z7pj_tsfnddd(double noundef %0, double noundef %1, double noundef %2) #0 {
  %4 = alloca double, align 8
  %5 = alloca double, align 8
  %6 = alloca double, align 8
  %7 = alloca double, align 8
  store double %0, ptr %4, align 8, !tbaa !3
  store double %1, ptr %5, align 8, !tbaa !3
  store double %2, ptr %6, align 8, !tbaa !3
  call void @llvm.lifetime.start.p0(i64 8, ptr %7) #3
  %8 = load double, ptr %4, align 8, !tbaa !3
  %9 = call double @cos(double noundef %8) #3, !tbaa !7
  store double %9, ptr %7, align 8, !tbaa !3
  %10 = load double, ptr %6, align 8, !tbaa !3
  %11 = load double, ptr %6, align 8, !tbaa !3
  %12 = load double, ptr %5, align 8, !tbaa !3
  %13 = fmul double %11, %12
  %14 = call double @atanh(double noundef %13) #3, !tbaa !7
  %15 = fmul double %10, %14
  %16 = call double @exp(double noundef %15) #3, !tbaa !7
  %17 = load double, ptr %5, align 8, !tbaa !3
  %18 = fcmp ogt double %17, 0.000000e+00
  br i1 %18, label %19, label %24

19:                                               ; preds = %3
  %20 = load double, ptr %7, align 8, !tbaa !3
  %21 = load double, ptr %5, align 8, !tbaa !3
  %22 = fadd double 1.000000e+00, %21
  %23 = fdiv double %20, %22
  br label %29

24:                                               ; preds = %3
  %25 = load double, ptr %5, align 8, !tbaa !3
  %26 = fsub double 1.000000e+00, %25
  %27 = load double, ptr %7, align 8, !tbaa !3
  %28 = fdiv double %26, %27
  br label %29

29:                                               ; preds = %24, %19
  %30 = phi double [ %23, %19 ], [ %28, %24 ]
  %31 = fmul double %16, %30
  call void @llvm.lifetime.end.p0(i64 8, ptr %7) #3
  ret double %31
}

; Function Attrs: nocallback nofree nosync nounwind willreturn memory(argmem: readwrite)
declare void @llvm.lifetime.start.p0(i64 immarg, ptr captures(none)) #1

; Function Attrs: nounwind
declare double @cos(double noundef) #2

; Function Attrs: nounwind
declare double @exp(double noundef) #2

; Function Attrs: nounwind
declare double @atanh(double noundef) #2

; Function Attrs: nocallback nofree nosync nounwind willreturn memory(argmem: readwrite)
declare void @llvm.lifetime.end.p0(i64 immarg, ptr captures(none)) #1


!llvm.module.flags = !{!0, !1, !2}

!0 = !{i32 1, !"wchar_size", i32 4}
!1 = !{i32 8, !"PIC Level", i32 2}
!2 = !{i32 7, !"uwtable", i32 2}
!3 = !{!4, !4, i64 0}
!4 = !{!"double", !5, i64 0}
!5 = !{!"omnipotent char", !6, i64 0}
!6 = !{!"Simple C++ TBAA"}
!7 = !{!8, !8, i64 0}
!8 = !{!"int", !5, i64 0}
