; ModuleID = 'bench/proj/original/tsfn.ll'
source_filename = "bench/proj/original/tsfn.ll"
target datalayout = "e-m:e-p270:32:32-p271:32:32-p272:64:64-i64:64-i128:128-f80:128-n8:16:32:64-S128"
target triple = "x86_64-pc-linux-gnu"

; Function Attrs: mustprogress nofree nounwind willreturn memory(write) uwtable
define hidden noundef double @_Z7pj_tsfnddd(double noundef %0, double noundef %1, double noundef %2) local_unnamed_addr #0 {
  %4 = tail call double @cos(double noundef %0) #2, !tbaa !3
  %5 = fmul double %1, %2
  %6 = tail call double @atanh(double noundef %5) #2, !tbaa !3
  %7 = fmul double %2, %6
  %8 = tail call double @exp(double noundef %7) #2, !tbaa !3
  %9 = fcmp ogt double %1, 0.000000e+00
  %10 = fadd double %1, 1.000000e+00
  %11 = fdiv double %4, %10
  %12 = fsub double 1.000000e+00, %1
  %13 = fdiv double %12, %4
  %14 = select i1 %9, double %11, double %13
  %15 = fmul double %8, %14
  ret double %15
}

; Function Attrs: mustprogress nofree nounwind willreturn memory(write)
declare double @cos(double noundef) local_unnamed_addr #1

; Function Attrs: mustprogress nofree nounwind willreturn memory(write)
declare double @exp(double noundef) local_unnamed_addr #1

; Function Attrs: mustprogress nofree nounwind willreturn memory(write)
declare double @atanh(double noundef) local_unnamed_addr #1


!llvm.module.flags = !{!0, !1, !2}

!0 = !{i32 1, !"wchar_size", i32 4}
!1 = !{i32 8, !"PIC Level", i32 2}
!2 = !{i32 7, !"uwtable", i32 2}
!3 = !{!4, !4, i64 0}
!4 = !{!"int", !5, i64 0}
!5 = !{!"omnipotent char", !6, i64 0}
!6 = !{!"Simple C++ TBAA"}
